0001 0000                      		.i8080
0003 0000                      		entry:
0004 0000 C3 24 00             		    jmp main
0006 0003                      		__padd16:
0007 0003 4E                   		    mov c, m
0008 0004 23                   		    inx h
0009 0005 46                   		    mov b, m
0010 0006 EB                   		    xchg
0011 0007 0B                   		    dcx b
0012 0008 EB                   		    xchg
0013 0009 73                   		    mov m, e
0014 000A 2B                   		    dcx h
0015 000B 72                   		    mov m, d
0016 000C 69                   		    mov l, c
0017 000D 60                   		    mov h, b
0018 000E C9                   		    ret
0020 000F                      		__sadd16:
0021 000F 4E                   		    mov c, m
0022 0010 23                   		    inx h
0023 0011 46                   		    mov b, m
0024 0012 EB                   		    xchg
0025 0013 0B                   		    dcx b
0026 0014 EB                   		    xchg
0027 0015 73                   		    mov m, e
0028 0016 2B                   		    dcx h
0029 0017 72                   		    mov m, d
0030 0018 C9                   		    ret
0032 0019                      		__sgnb0:
0033 0019 6F                   		    mov l, a
0034 001A 26 00                		    mvi h, 0
0035 001C C9                   		    ret
0037 001D                      		__or16:
0038 001D 7C                   		    mov a, h
0039 001E B2                   		    ora d
0040 001F 67                   		    mov h, a
0041 0020 7D                   		    mov a, l
0042 0021 B3                   		    ora e
0043 0022 6F                   		    mov l, a
0044 0023 C9                   		    ret
0092 0024                      		main:
0092 0024                      		//56     addr = (uint8_t*)(0x76D0 + 78*3 + 8);
0092 0024 21 BE 00             		    lxi h, 0BEh
0092 0027 36 C2                		    mvi m, 0C2h
0092 0029 23                   		    inx h
0092 002A 36 77                		    mvi m, 077h
0092 002C                      		//57     for(i=64; i; i--)
0092 002C 21 B8 00             		    lxi h, 0B8h
0092 002F 36 40                		    mvi m, 040h
0092 0031 3A B8 00             		    lda 0B8h
0092 0034 B7                   		    ora a
0092 0035 CA 4E 00             		    jz 04Eh
0092 0038                      		//58     {
0092 0038 2A BE 00             		    lhld 0BEh
0092 003B 36 2A                		    mvi m, 02Ah
0092 003D                      		//60 	addr++;
0092 003D 2A BE 00             		    lhld 0BEh
0092 0040 23                   		    inx h
0092 0041 22 BE 00             		    shld 0BEh
0092 0044 3A B8 00             		    lda 0B8h
0092 0047 3D                   		    dcr a
0092 0048 32 B8 00             		    sta 0B8h
0092 004B C3 31 00             		    jmp 031h
0092 004E                      		//63     addr = (uint8_t*)(0x76D0 + 78*(3+24) + 8);
0092 004E 21 BE 00             		    lxi h, 0BEh
0092 0051 36 12                		    mvi m, 012h
0092 0053 23                   		    inx h
0092 0054 36 7F                		    mvi m, 07Fh
0092 0056                      		//64     for(i=64; i; i--)
0092 0056 21 B8 00             		    lxi h, 0B8h
0092 0059 36 40                		    mvi m, 040h
0092 005B 3A B8 00             		    lda 0B8h
0092 005E B7                   		    ora a
0092 005F CA 78 00             		    jz 078h
0092 0062                      		//65     {
0092 0062 2A BE 00             		    lhld 0BEh
0092 0065 36 2A                		    mvi m, 02Ah
0092 0067                      		//67 	addr++;
0092 0067 2A BE 00             		    lhld 0BEh
0092 006A 23                   		    inx h
0092 006B 22 BE 00             		    shld 0BEh
0092 006E 3A B8 00             		    lda 0B8h
0092 0071 3D                   		    dcr a
0092 0072 32 B8 00             		    sta 0B8h
0092 0075 C3 5B 00             		    jmp 05Bh
0092 0078                      		//70     addr = (uint8_t*)(0x76D0 + 78*3 + 8);
0092 0078 21 BE 00             		    lxi h, 0BEh
0092 007B 36 C2                		    mvi m, 0C2h
0092 007D 23                   		    inx h
0092 007E 36 77                		    mvi m, 077h
0092 0080                      		//71     for(i=25; i; i--)
0092 0080 21 B8 00             		    lxi h, 0B8h
0092 0083 36 19                		    mvi m, 019h
0092 0085 3A B8 00             		    lda 0B8h
0092 0088 B7                   		    ora a
0092 0089 CA B4 00             		    jz 0B4h
0092 008C                      		//72     {
0092 008C 2A BE 00             		    lhld 0BEh
0092 008F 36 2A                		    mvi m, 02Ah
0092 0091                      		//74 	addr+=63;
0092 0091 2A BE 00             		    lhld 0BEh
0092 0094 11 3F 00             		    lxi d, 03Fh
0092 0097 19                   		    dad d
0092 0098 22 BE 00             		    shld 0BEh
0092 009B                      		//75 	*addr = '*';
0092 009B 2A BE 00             		    lhld 0BEh
0092 009E 36 2A                		    mvi m, 02Ah
0092 00A0                      		//76 	addr+=78-63;
0092 00A0 2A BE 00             		    lhld 0BEh
0092 00A3 11 0F 00             		    lxi d, 0Fh
0092 00A6 19                   		    dad d
0092 00A7 22 BE 00             		    shld 0BEh
0092 00AA 3A B8 00             		    lda 0B8h
0092 00AD 3D                   		    dcr a
0092 00AE 32 B8 00             		    sta 0B8h
0092 00B1 C3 85 00             		    jmp 085h
0092 00B4                      		//79     for(;;);    
0092 00B4 C3 B4 00             		    jmp 0B4h
0092 00B7 C9                   		    ret
0093 00C0 